; Function Attrs: mustprogress uwtable
define noundef ptr @_ZN8proxygen21HTTPDownstreamSession28getTransactionTimeoutHandlerEPNS_15HTTPTransactionE(ptr noundef nonnull align 8 dereferenceable(2504) %this, ptr noundef %txn) unnamed_addr #6 align 2 {
entry:
  %controller_.i = getelementptr inbounds i8, ptr %this, i64 1512
  %0 = load ptr, ptr %controller_.i, align 8
  %localAddr_.i.i = getelementptr inbounds i8, ptr %this, i64 1360
  %vtable = load ptr, ptr %0, align 8
  %vfn = getelementptr inbounds i8, ptr %vtable, i64 32
  %1 = load ptr, ptr %vfn, align 8
  %call3 = tail call noundef ptr %1(ptr noundef nonnull align 8 dereferenceable(8) %0, ptr noundef %txn, ptr noundef nonnull align 8 dereferenceable(27) %localAddr_.i.i)
  ret ptr %call3
}